target datalayout = "e-m:e-p270:32:32-p271:32:32-p272:64:64-i64:64-i128:128-f80:128-n8:16:32:64-S128"
target triple = "x86_64-unknown-linux-gnu"

%"class.icu_75::NFSubstitution" = type { %"class.icu_75::UObject", i32, ptr, ptr }
%"class.icu_75::UObject" = type { ptr }

; Function Attrs: mustprogress nounwind uwtable
define void @_ZN6icu_7514NFSubstitutionD2Ev(ptr noundef nonnull align 8 dereferenceable(32) %this) unnamed_addr #0 align 2 {
entry:
  %this.addr = alloca ptr, align 8
  store ptr %this, ptr %this.addr, align 8
  %this1 = load ptr, ptr %this.addr, align 8
  store ptr getelementptr inbounds ({ [17 x ptr] }, ptr @_ZTVN6icu_7514NFSubstitutionE, i32 0, i32 0, i32 2), ptr %this1, align 8
  %numberFormat = getelementptr inbounds %"class.icu_75::NFSubstitution", ptr %this1, i32 0, i32 3
  %0 = load ptr, ptr %numberFormat, align 8
  %isnull = icmp eq ptr %0, null
  br i1 %isnull, label %delete.end, label %delete.notnull

delete.notnull:                                   ; preds = %entry
  %vtable = load ptr, ptr %0, align 8
  %vfn = getelementptr inbounds ptr, ptr %vtable, i64 1
  %1 = load ptr, ptr %vfn, align 8
  call void %1(ptr noundef nonnull align 8 dereferenceable(368) %0) #6
  br label %delete.end

delete.end:                                       ; preds = %delete.notnull, %entry
  %numberFormat2 = getelementptr inbounds %"class.icu_75::NFSubstitution", ptr %this1, i32 0, i32 3
  store ptr null, ptr %numberFormat2, align 8
  call void @_ZN6icu_757UObjectD2Ev(ptr noundef nonnull align 8 dereferenceable(8) %this1) #6
  ret void
}

; Function Attrs: mustprogress nounwind uwtable
define void @_ZN6icu_7521SameValueSubstitutionD2Ev(ptr noundef nonnull align 8 dereferenceable(32) %this) unnamed_addr #0 align 2 {
entry:
  %this.addr = alloca ptr, align 8
  store ptr %this, ptr %this.addr, align 8
  %this1 = load ptr, ptr %this.addr, align 8
  call void @_ZN6icu_7514NFSubstitutionD2Ev(ptr noundef nonnull align 8 dereferenceable(32) %this1) #6
  ret void
}